target datalayout = "e-m:e-p270:32:32-p271:32:32-p272:64:64-i64:64-i128:128-f80:128-n8:16:32:64-S128"
target triple = "x86_64-pc-linux-gnu"

%"class.icu_77::number::impl::DecimalQuantity" = type <{ %"class.icu_77::IFixedDecimal", i8, [3 x i8], i32, i32, i8, i8, [2 x i8], double, i32, i32, i32, i32, %union.anon, i8, i8, [6 x i8] }>
%"class.icu_77::IFixedDecimal" = type { ptr }
%union.anon = type { %struct.anon }
%struct.anon = type { ptr, i32 }
%"class.icu_77::double_conversion::StringToDoubleConverter" = type <{ i32, [4 x i8], double, double, ptr, ptr, i16, [6 x i8] }>
%"class.icu_77::UnicodeString" = type { %"class.icu_77::Replaceable", %"union.icu_77::UnicodeString::StackBufferOrFields" }
%"class.icu_77::Replaceable" = type { %"class.icu_77::UObject" }
%"class.icu_77::UObject" = type { ptr }
%"union.icu_77::UnicodeString::StackBufferOrFields" = type { %struct.anon.1, [32 x i8] }
%struct.anon.1 = type { i16, i32, i32, ptr }
%struct.anon.0 = type { i16, [27 x i16] }

@_ZN12_GLOBAL__N_113NEGATIVE_FLAGE = internal global i8 1, align 1
@.str.1 = private unnamed_addr constant [1 x i8] zeroinitializer, align 1

; Function Attrs: inlinehint mustprogress nounwind uwtable
define linkonce_odr noundef i32 @_ZNK6icu_7713UnicodeString14getShortLengthEv(ptr noundef nonnull align 8 dereferenceable(64) %0) #2 comdat align 2 {
  %2 = alloca ptr, align 8
  store ptr %0, ptr %2, align 8, !tbaa !80
  %3 = load ptr, ptr %2, align 8
  %4 = getelementptr inbounds nuw %"class.icu_77::UnicodeString", ptr %3, i32 0, i32 1
  %5 = getelementptr inbounds nuw %struct.anon.1, ptr %4, i32 0, i32 0
  %6 = load i16, ptr %5, align 8, !tbaa !42
  %7 = sext i16 %6 to i32
  %8 = ashr i32 %7, 5
  ret i32 %8
}

; Function Attrs: inlinehint mustprogress nounwind uwtable
define linkonce_odr noundef signext i8 @_ZNK6icu_7713UnicodeString14hasShortLengthEv(ptr noundef nonnull align 8 dereferenceable(64) %0) #2 comdat align 2 {
  %2 = alloca ptr, align 8
  store ptr %0, ptr %2, align 8, !tbaa !80
  %3 = load ptr, ptr %2, align 8
  %4 = getelementptr inbounds nuw %"class.icu_77::UnicodeString", ptr %3, i32 0, i32 1
  %5 = getelementptr inbounds nuw %struct.anon.1, ptr %4, i32 0, i32 0
  %6 = load i16, ptr %5, align 8, !tbaa !42
  %7 = sext i16 %6 to i32
  %8 = icmp sge i32 %7, 0
  %9 = zext i1 %8 to i8
  ret i8 %9
}

; Function Attrs: inlinehint mustprogress uwtable
define linkonce_odr noundef i32 @_ZNK6icu_7713UnicodeString6lengthEv(ptr noundef nonnull align 8 dereferenceable(64) %0) #3 comdat align 2 {
  %2 = alloca ptr, align 8
  store ptr %0, ptr %2, align 8, !tbaa !80
  %3 = load ptr, ptr %2, align 8
  %4 = call noundef signext i8 @_ZNK6icu_7713UnicodeString14hasShortLengthEv(ptr noundef nonnull align 8 dereferenceable(64) %3)
  %5 = icmp ne i8 %4, 0
  br i1 %5, label %6, label %8

6:                                                ; preds = %1
  %7 = call noundef i32 @_ZNK6icu_7713UnicodeString14getShortLengthEv(ptr noundef nonnull align 8 dereferenceable(64) %3)
  br label %12

8:                                                ; preds = %1
  %9 = getelementptr inbounds nuw %"class.icu_77::UnicodeString", ptr %3, i32 0, i32 1
  %10 = getelementptr inbounds nuw %struct.anon.1, ptr %9, i32 0, i32 1
  %11 = load i32, ptr %10, align 4, !tbaa !42
  br label %12

12:                                               ; preds = %8, %6
  %13 = phi i32 [ %7, %6 ], [ %11, %8 ]
  ret i32 %13
}

; Function Attrs: inlinehint mustprogress nounwind uwtable
define linkonce_odr noundef ptr @_ZNK6icu_7713UnicodeString9getBufferEv(ptr noundef nonnull align 8 dereferenceable(64) %0) #2 comdat align 2 {
  %2 = alloca ptr, align 8
  %3 = alloca ptr, align 8
  store ptr %0, ptr %3, align 8, !tbaa !80
  %4 = load ptr, ptr %3, align 8
  %5 = getelementptr inbounds nuw %"class.icu_77::UnicodeString", ptr %4, i32 0, i32 1
  %6 = getelementptr inbounds nuw %struct.anon.1, ptr %5, i32 0, i32 0
  %7 = load i16, ptr %6, align 8, !tbaa !42
  %8 = sext i16 %7 to i32
  %9 = and i32 %8, 17
  %10 = icmp ne i32 %9, 0
  br i1 %10, label %11, label %12

11:                                               ; preds = %1
  store ptr null, ptr %2, align 8
  br label %27

12:                                               ; preds = %1
  %13 = getelementptr inbounds nuw %"class.icu_77::UnicodeString", ptr %4, i32 0, i32 1
  %14 = getelementptr inbounds nuw %struct.anon.1, ptr %13, i32 0, i32 0
  %15 = load i16, ptr %14, align 8, !tbaa !42
  %16 = sext i16 %15 to i32
  %17 = and i32 %16, 2
  %18 = icmp ne i32 %17, 0
  br i1 %18, label %19, label %23

19:                                               ; preds = %12
  %20 = getelementptr inbounds nuw %"class.icu_77::UnicodeString", ptr %4, i32 0, i32 1
  %21 = getelementptr inbounds nuw %struct.anon.0, ptr %20, i32 0, i32 1
  %22 = getelementptr inbounds [27 x i16], ptr %21, i64 0, i64 0
  store ptr %22, ptr %2, align 8
  br label %27

23:                                               ; preds = %12
  %24 = getelementptr inbounds nuw %"class.icu_77::UnicodeString", ptr %4, i32 0, i32 1
  %25 = getelementptr inbounds nuw %struct.anon.1, ptr %24, i32 0, i32 3
  %26 = load ptr, ptr %25, align 8, !tbaa !42
  store ptr %26, ptr %2, align 8
  br label %27

27:                                               ; preds = %23, %19, %11
  %28 = load ptr, ptr %2, align 8
  ret ptr %28
}

; Function Attrs: mustprogress nounwind uwtable
define linkonce_odr void @_ZN6icu_7717double_conversion23StringToDoubleConverterC2EiddPKcS3_t(ptr noundef nonnull align 8 dereferenceable(42) %0, i32 noundef %1, double noundef %2, double noundef %3, ptr noundef %4, ptr noundef %5, i16 noundef zeroext %6) unnamed_addr #0 comdat align 2 {
  %8 = alloca ptr, align 8
  %9 = alloca i32, align 4
  %10 = alloca double, align 8
  %11 = alloca double, align 8
  %12 = alloca ptr, align 8
  %13 = alloca ptr, align 8
  %14 = alloca i16, align 2
  store ptr %0, ptr %8, align 8, !tbaa !89
  store i32 %1, ptr %9, align 4, !tbaa !14
  store double %2, ptr %10, align 8, !tbaa !67
  store double %3, ptr %11, align 8, !tbaa !67
  store ptr %4, ptr %12, align 8, !tbaa !17
  store ptr %5, ptr %13, align 8, !tbaa !17
  store i16 %6, ptr %14, align 2, !tbaa !54
  %15 = load ptr, ptr %8, align 8
  %16 = getelementptr inbounds nuw %"class.icu_77::double_conversion::StringToDoubleConverter", ptr %15, i32 0, i32 0
  %17 = load i32, ptr %9, align 4, !tbaa !14
  store i32 %17, ptr %16, align 8, !tbaa !91
  %18 = getelementptr inbounds nuw %"class.icu_77::double_conversion::StringToDoubleConverter", ptr %15, i32 0, i32 2
  %19 = load double, ptr %10, align 8, !tbaa !67
  store double %19, ptr %18, align 8, !tbaa !93
  %20 = getelementptr inbounds nuw %"class.icu_77::double_conversion::StringToDoubleConverter", ptr %15, i32 0, i32 3
  %21 = load double, ptr %11, align 8, !tbaa !67
  store double %21, ptr %20, align 8, !tbaa !94
  %22 = getelementptr inbounds nuw %"class.icu_77::double_conversion::StringToDoubleConverter", ptr %15, i32 0, i32 4
  %23 = load ptr, ptr %12, align 8, !tbaa !17
  store ptr %23, ptr %22, align 8, !tbaa !95
  %24 = getelementptr inbounds nuw %"class.icu_77::double_conversion::StringToDoubleConverter", ptr %15, i32 0, i32 5
  %25 = load ptr, ptr %13, align 8, !tbaa !17
  store ptr %25, ptr %24, align 8, !tbaa !96
  %26 = getelementptr inbounds nuw %"class.icu_77::double_conversion::StringToDoubleConverter", ptr %15, i32 0, i32 6
  %27 = load i16, ptr %14, align 2, !tbaa !54
  store i16 %27, ptr %26, align 8, !tbaa !97
  ret void
}

; Function Attrs: mustprogress nounwind uwtable
define noundef zeroext i1 @_ZNK6icu_776number4impl15DecimalQuantity10isNegativeEv(ptr noundef nonnull align 8 dereferenceable(66) %0) #0 align 2 {
  %2 = alloca ptr, align 8
  store ptr %0, ptr %2, align 8, !tbaa !25
  %3 = load ptr, ptr %2, align 8
  %4 = getelementptr inbounds nuw %"class.icu_77::number::impl::DecimalQuantity", ptr %3, i32 0, i32 5
  %5 = load i8, ptr %4, align 4, !tbaa !39
  %6 = sext i8 %5 to i32
  %7 = load i8, ptr @_ZN12_GLOBAL__N_113NEGATIVE_FLAGE, align 1, !tbaa !42
  %8 = sext i8 %7 to i32
  %9 = and i32 %6, %8
  %10 = icmp ne i32 %9, 0
  ret i1 %10
}

; Function Attrs: mustprogress uwtable
define noundef double @_ZNK6icu_776number4impl15DecimalQuantity8toDoubleEv(ptr noundef nonnull align 8 dereferenceable(66) %0) #1 align 2 personality ptr @__gxx_personality_v0 {
  %2 = alloca double, align 8
  %3 = alloca ptr, align 8
  %4 = alloca %"class.icu_77::double_conversion::StringToDoubleConverter", align 8
  %5 = alloca %"class.icu_77::UnicodeString", align 8
  %6 = alloca i32, align 4
  %7 = alloca ptr, align 8
  %8 = alloca i32, align 4
  store ptr %0, ptr %3, align 8, !tbaa !25
  %9 = load ptr, ptr %3, align 8
  %10 = load ptr, ptr %9, align 8, !tbaa !27
  %11 = getelementptr inbounds ptr, ptr %10, i64 3
  %12 = load ptr, ptr %11, align 8
  %13 = call noundef zeroext i1 %12(ptr noundef nonnull align 8 dereferenceable(66) %9)
  br i1 %13, label %14, label %15

14:                                               ; preds = %1
  store double 0x7FF8000000000000, ptr %2, align 8
  br label %36

15:                                               ; preds = %1
  %16 = load ptr, ptr %9, align 8, !tbaa !27
  %17 = getelementptr inbounds ptr, ptr %16, i64 4
  %18 = load ptr, ptr %17, align 8
  %19 = call noundef zeroext i1 %18(ptr noundef nonnull align 8 dereferenceable(66) %9)
  br i1 %19, label %20, label %24

20:                                               ; preds = %15
  %21 = call noundef zeroext i1 @_ZNK6icu_776number4impl15DecimalQuantity10isNegativeEv(ptr noundef nonnull align 8 dereferenceable(66) %9)
  %22 = select i1 %21, float 0xFFF0000000000000, float 0x7FF0000000000000
  %23 = fpext float %22 to double
  store double %23, ptr %2, align 8
  br label %36

24:                                               ; preds = %15
  br label %25

25:                                               ; preds = %24
  call void @llvm.lifetime.start.p0(i64 48, ptr %4) #14
  call void @_ZN6icu_7717double_conversion23StringToDoubleConverterC2EiddPKcS3_t(ptr noundef nonnull align 8 dereferenceable(42) %4, i32 noundef 0, double noundef 0.000000e+00, double noundef 0.000000e+00, ptr noundef @.str.1, ptr noundef @.str.1, i16 noundef zeroext 0)
  call void @llvm.lifetime.start.p0(i64 64, ptr %5) #14
  call void @_ZNK6icu_776number4impl15DecimalQuantity18toScientificStringEv(ptr dead_on_unwind writable sret(%"class.icu_77::UnicodeString") align 8 %5, ptr noundef nonnull align 8 dereferenceable(66) %9)
  call void @llvm.lifetime.start.p0(i64 4, ptr %6) #14
  %26 = invoke noundef ptr @_ZNK6icu_7713UnicodeString9getBufferEv(ptr noundef nonnull align 8 dereferenceable(64) %5)
          to label %27 unwind label %32

27:                                               ; preds = %25
  %28 = invoke noundef i32 @_ZNK6icu_7713UnicodeString6lengthEv(ptr noundef nonnull align 8 dereferenceable(64) %5)
          to label %29 unwind label %32

29:                                               ; preds = %27
  %30 = invoke noundef double @_ZNK6icu_7717double_conversion23StringToDoubleConverter14StringToDoubleEPKtiPi(ptr noundef nonnull align 8 dereferenceable(42) %4, ptr noundef %26, i32 noundef %28, ptr noundef %6)
          to label %31 unwind label %32

31:                                               ; preds = %29
  store double %30, ptr %2, align 8
  call void @llvm.lifetime.end.p0(i64 4, ptr %6) #14
  call void @_ZN6icu_7713UnicodeStringD1Ev(ptr noundef nonnull align 8 dereferenceable(64) %5) #14
  call void @llvm.lifetime.end.p0(i64 64, ptr %5) #14
  call void @llvm.lifetime.end.p0(i64 48, ptr %4) #14
  br label %36

32:                                               ; preds = %29, %27, %25
  %33 = landingpad { ptr, i32 }
          cleanup
  %34 = extractvalue { ptr, i32 } %33, 0
  store ptr %34, ptr %7, align 8
  %35 = extractvalue { ptr, i32 } %33, 1
  store i32 %35, ptr %8, align 4
  call void @llvm.lifetime.end.p0(i64 4, ptr %6) #14
  call void @_ZN6icu_7713UnicodeStringD1Ev(ptr noundef nonnull align 8 dereferenceable(64) %5) #14
  call void @llvm.lifetime.end.p0(i64 64, ptr %5) #14
  call void @llvm.lifetime.end.p0(i64 48, ptr %4) #14
  br label %38

36:                                               ; preds = %31, %20, %14
  %37 = load double, ptr %2, align 8
  ret double %37

38:                                               ; preds = %32
  %39 = load ptr, ptr %7, align 8
  %40 = load i32, ptr %8, align 4
  %41 = insertvalue { ptr, i32 } poison, ptr %39, 0
  %42 = insertvalue { ptr, i32 } %41, i32 %40, 1
  resume { ptr, i32 } %42
}