; Function Attrs: mustprogress uwtable
define noundef double @_ZNK6icu_776number4impl15DecimalQuantity8toDoubleEv(ptr noundef nonnull align 8 dereferenceable(66) %0) local_unnamed_addr #1 align 2 personality ptr @__gxx_personality_v0 {
  %2 = alloca %"class.icu_77::double_conversion::StringToDoubleConverter", align 8
  %3 = alloca %"class.icu_77::UnicodeString", align 8
  %4 = alloca i32, align 4
  %5 = load ptr, ptr %0, align 8, !tbaa !15
  %6 = getelementptr inbounds nuw i8, ptr %5, i64 24
  %7 = load ptr, ptr %6, align 8
  %8 = tail call noundef zeroext i1 %7(ptr noundef nonnull align 8 dereferenceable(66) %0)
  br i1 %8, label %45, label %9

9:                                                ; preds = %1
  %10 = load ptr, ptr %0, align 8, !tbaa !15
  %11 = getelementptr inbounds nuw i8, ptr %10, i64 32
  %12 = load ptr, ptr %11, align 8
  %13 = tail call noundef zeroext i1 %12(ptr noundef nonnull align 8 dereferenceable(66) %0)
  br i1 %13, label %14, label %19

14:                                               ; preds = %9
  %15 = getelementptr inbounds nuw i8, ptr %0, i64 20
  %16 = load i8, ptr %15, align 4, !tbaa !35
  %17 = and i8 %16, 1
  %.not = icmp eq i8 %17, 0
  %18 = select i1 %.not, double 0x7FF0000000000000, double 0xFFF0000000000000
  br label %45

19:                                               ; preds = %9
  call void @llvm.lifetime.start.p0(i64 48, ptr nonnull %2) #26
  store i32 0, ptr %2, align 8, !tbaa !57
  %20 = getelementptr inbounds nuw i8, ptr %2, i64 8
  %21 = getelementptr inbounds nuw i8, ptr %2, i64 24
  call void @llvm.memset.p0.i64(ptr noundef nonnull align 8 dereferenceable(16) %20, i8 0, i64 16, i1 false)
  store ptr @.str.1, ptr %21, align 8, !tbaa !60
  %22 = getelementptr inbounds nuw i8, ptr %2, i64 32
  store ptr @.str.1, ptr %22, align 8, !tbaa !61
  %23 = getelementptr inbounds nuw i8, ptr %2, i64 40
  store i16 0, ptr %23, align 8, !tbaa !62
  call void @llvm.lifetime.start.p0(i64 64, ptr nonnull %3) #26
  call void @_ZNK6icu_776number4impl15DecimalQuantity18toScientificStringEv(ptr dead_on_unwind nonnull writable sret(%"class.icu_77::UnicodeString") align 8 %3, ptr noundef nonnull align 8 dereferenceable(66) %0)
  call void @llvm.lifetime.start.p0(i64 4, ptr nonnull %4) #26
  %24 = getelementptr inbounds nuw i8, ptr %3, i64 8
  %25 = load i16, ptr %24, align 8, !tbaa !26
  %26 = and i16 %25, 17
  %.not.i = icmp eq i16 %26, 0
  br i1 %.not.i, label %27, label %34

27:                                               ; preds = %19
  %28 = and i16 %25, 2
  %.not2.i = icmp eq i16 %28, 0
  br i1 %.not2.i, label %31, label %29

29:                                               ; preds = %27
  %30 = getelementptr inbounds nuw i8, ptr %3, i64 10
  br label %34

31:                                               ; preds = %27
  %32 = getelementptr inbounds nuw i8, ptr %3, i64 24
  %33 = load ptr, ptr %32, align 8, !tbaa !26
  br label %34

34:                                               ; preds = %31, %29, %19
  %.0.i = phi ptr [ %30, %29 ], [ %33, %31 ], [ null, %19 ]
  %35 = icmp slt i16 %25, 0
  %36 = ashr i16 %25, 5
  %37 = sext i16 %36 to i32
  %38 = getelementptr inbounds nuw i8, ptr %3, i64 12
  %39 = load i32, ptr %38, align 4
  %40 = select i1 %35, i32 %39, i32 %37
  %41 = invoke noundef double @_ZNK6icu_7717double_conversion23StringToDoubleConverter14StringToDoubleEPKtiPi(ptr noundef nonnull align 8 dereferenceable(42) %2, ptr noundef %.0.i, i32 noundef %40, ptr noundef nonnull %4)
          to label %42 unwind label %43

42:                                               ; preds = %34
  call void @llvm.lifetime.end.p0(i64 4, ptr nonnull %4) #26
  call void @_ZN6icu_7713UnicodeStringD1Ev(ptr noundef nonnull align 8 dereferenceable(64) %3) #26
  call void @llvm.lifetime.end.p0(i64 64, ptr nonnull %3) #26
  call void @llvm.lifetime.end.p0(i64 48, ptr nonnull %2) #26
  br label %45

43:                                               ; preds = %34
  %44 = landingpad { ptr, i32 }
          cleanup
  call void @llvm.lifetime.end.p0(i64 4, ptr nonnull %4) #26
  call void @_ZN6icu_7713UnicodeStringD1Ev(ptr noundef nonnull align 8 dereferenceable(64) %3) #26
  call void @llvm.lifetime.end.p0(i64 64, ptr nonnull %3) #26
  call void @llvm.lifetime.end.p0(i64 48, ptr nonnull %2) #26
  resume { ptr, i32 } %44

45:                                               ; preds = %1, %42, %14
  %.0 = phi double [ %18, %14 ], [ %41, %42 ], [ 0x7FF8000000000000, %1 ]
  ret double %.0
}